     1 00000000                                 [FORMAT "WCOFF"]
     2 00000000                                 [INSTRSET "i486p"]
     3 00000000                                 [OPTIMIZE 1]
     4 00000000                                 [OPTION 1]
     5 00000000                                 [BITS 32]
     6 00000000                                 	EXTERN	_io_out8
     7 00000000                                 [FILE "int.c"]
     8                                          [SECTION .data]
     9 00000000                                 _keytable:
    10 00000000 00                              	DB	0
    11 00000001 00                              	DB	0
    12 00000002 31                              	DB	49
    13 00000003 32                              	DB	50
    14 00000004 33                              	DB	51
    15 00000005 34                              	DB	52
    16 00000006 35                              	DB	53
    17 00000007 36                              	DB	54
    18 00000008 37                              	DB	55
    19 00000009 38                              	DB	56
    20 0000000A 39                              	DB	57
    21 0000000B 30                              	DB	48
    22 0000000C 2D                              	DB	45
    23 0000000D 5E                              	DB	94
    24 0000000E 00                              	DB	0
    25 0000000F 00                              	DB	0
    26 00000010 51                              	DB	81
    27 00000011 57                              	DB	87
    28 00000012 45                              	DB	69
    29 00000013 52                              	DB	82
    30 00000014 54                              	DB	84
    31 00000015 59                              	DB	89
    32 00000016 55                              	DB	85
    33 00000017 49                              	DB	73
    34 00000018 4F                              	DB	79
    35 00000019 50                              	DB	80
    36 0000001A 40                              	DB	64
    37 0000001B 5B                              	DB	91
    38 0000001C 00                              	DB	0
    39 0000001D 00                              	DB	0
    40 0000001E 41                              	DB	65
    41 0000001F 53                              	DB	83
    42 00000020 44                              	DB	68
    43 00000021 46                              	DB	70
    44 00000022 47                              	DB	71
    45 00000023 48                              	DB	72
    46 00000024 4A                              	DB	74
    47 00000025 4B                              	DB	75
    48 00000026 4C                              	DB	76
    49 00000027 3B                              	DB	59
    50 00000028 3A                              	DB	58
    51 00000029 00                              	DB	0
    52 0000002A 00                              	DB	0
    53 0000002B 5D                              	DB	93
    54 0000002C 5A                              	DB	90
    55 0000002D 58                              	DB	88
    56 0000002E 43                              	DB	67
    57 0000002F 56                              	DB	86
    58 00000030 42                              	DB	66
    59 00000031 4E                              	DB	78
    60 00000032 4D                              	DB	77
    61 00000033 2C                              	DB	44
    62 00000034 2E                              	DB	46
    63 00000035 2F                              	DB	47
    64 00000036 00                              	DB	0
    65 00000037 2A                              	DB	42
    66 00000038 00                              	DB	0
    67 00000039 20                              	DB	32
    68 0000003A 00                              	DB	0
    69 0000003B 00                              	DB	0
    70 0000003C 00                              	DB	0
    71 0000003D 00                              	DB	0
    72 0000003E 00                              	DB	0
    73 0000003F 00                              	DB	0
    74 00000040 00                              	DB	0
    75 00000041 00                              	DB	0
    76 00000042 00                              	DB	0
    77 00000043 00                              	DB	0
    78 00000044 00                              	DB	0
    79 00000045 00                              	DB	0
    80 00000046 00                              	DB	0
    81 00000047 37                              	DB	55
    82 00000048 38                              	DB	56
    83 00000049 39                              	DB	57
    84 0000004A 2D                              	DB	45
    85 0000004B 34                              	DB	52
    86 0000004C 35                              	DB	53
    87 0000004D 36                              	DB	54
    88 0000004E 2B                              	DB	43
    89 0000004F 31                              	DB	49
    90 00000050 32                              	DB	50
    91 00000051 33                              	DB	51
    92 00000052 30                              	DB	48
    93 00000053 2E                              	DB	46
    94                                          [SECTION .text]
    95 00000000                                 	GLOBAL	_init_pic
    96 00000000                                 _init_pic:
    97 00000000 55                              	PUSH	EBP
    98 00000001 89 E5                           	MOV	EBP,ESP
    99 00000003 68 000000FF                     	PUSH	255
   100 00000008 6A 21                           	PUSH	33
   101 0000000A E8 [00000000]                   	CALL	_io_out8
   102 0000000F 68 000000FF                     	PUSH	255
   103 00000014 68 000000A1                     	PUSH	161
   104 00000019 E8 [00000000]                   	CALL	_io_out8
   105 0000001E 6A 11                           	PUSH	17
   106 00000020 6A 20                           	PUSH	32
   107 00000022 E8 [00000000]                   	CALL	_io_out8
   108 00000027 6A 20                           	PUSH	32
   109 00000029 6A 21                           	PUSH	33
   110 0000002B E8 [00000000]                   	CALL	_io_out8
   111 00000030 83 C4 20                        	ADD	ESP,32
   112 00000033 6A 04                           	PUSH	4
   113 00000035 6A 21                           	PUSH	33
   114 00000037 E8 [00000000]                   	CALL	_io_out8
   115 0000003C 6A 01                           	PUSH	1
   116 0000003E 6A 21                           	PUSH	33
   117 00000040 E8 [00000000]                   	CALL	_io_out8
   118 00000045 6A 11                           	PUSH	17
   119 00000047 68 000000A0                     	PUSH	160
   120 0000004C E8 [00000000]                   	CALL	_io_out8
   121 00000051 6A 28                           	PUSH	40
   122 00000053 68 000000A1                     	PUSH	161
   123 00000058 E8 [00000000]                   	CALL	_io_out8
   124 0000005D 83 C4 20                        	ADD	ESP,32
   125 00000060 6A 02                           	PUSH	2
   126 00000062 68 000000A1                     	PUSH	161
   127 00000067 E8 [00000000]                   	CALL	_io_out8
   128 0000006C 6A 01                           	PUSH	1
   129 0000006E 68 000000A1                     	PUSH	161
   130 00000073 E8 [00000000]                   	CALL	_io_out8
   131 00000078 68 000000FB                     	PUSH	251
   132 0000007D 6A 21                           	PUSH	33
   133 0000007F E8 [00000000]                   	CALL	_io_out8
   134 00000084 68 000000FF                     	PUSH	255
   135 00000089 68 000000A1                     	PUSH	161
   136 0000008E E8 [00000000]                   	CALL	_io_out8
   137 00000093 C9                              	LEAVE
   138 00000094 C3                              	RET
   139 00000095                                 	GLOBAL	_inthandler27
   140 00000095                                 _inthandler27:
   141 00000095 55                              	PUSH	EBP
   142 00000096 89 E5                           	MOV	EBP,ESP
   143 00000098 6A 67                           	PUSH	103
   144 0000009A 6A 20                           	PUSH	32
   145 0000009C E8 [00000000]                   	CALL	_io_out8
   146 000000A1 C9                              	LEAVE
   147 000000A2 C3                              	RET
